; Function Attrs: mustprogress nofree norecurse nosync nounwind willreturn memory(readwrite, inaccessiblemem: none) uwtable
define internal void @"_ZNSt17_Function_handlerIFvR7DfgEdgemEZN9DfgVertex12unlinkDeleteER8DfgGraphE3$_0E9_M_invokeERKSt9_Any_dataS1_Om"(ptr nocapture nonnull readnone align 8 %0, ptr noundef nonnull align 8 dereferenceable(32) %1, ptr nocapture nonnull readonly align 8 %2) #8 align 2 {
  %4 = getelementptr inbounds i8, ptr %1, i64 16
  %5 = load ptr, ptr %4, align 8
  %.not.i.i.i.i = icmp eq ptr %5, null
  br i1 %.not.i.i.i.i, label %"_ZSt10__invoke_rIvRZN9DfgVertex12unlinkDeleteER8DfgGraphE3$_0JR7DfgEdgemEENSt9enable_ifIX16is_invocable_r_vIT_T0_DpT1_EES8_E4typeEOS9_DpOSA_.exit", label %6

6:                                                ; preds = %3
  %7 = getelementptr inbounds i8, ptr %1, i64 8
  %8 = load ptr, ptr %7, align 8
  %.not3.i.i.i.i = icmp eq ptr %8, null
  %.pre.i.i.i.i = load ptr, ptr %1, align 8
  br i1 %.not3.i.i.i.i, label %10, label %9

9:                                                ; preds = %6
  store ptr %.pre.i.i.i.i, ptr %8, align 8
  br label %10

10:                                               ; preds = %9, %6
  %.not4.i.i.i.i = icmp eq ptr %.pre.i.i.i.i, null
  br i1 %.not4.i.i.i.i, label %14, label %11

11:                                               ; preds = %10
  %12 = load ptr, ptr %7, align 8
  %13 = getelementptr inbounds i8, ptr %.pre.i.i.i.i, i64 8
  store ptr %12, ptr %13, align 8
  br label %14

14:                                               ; preds = %11, %10
  %15 = load ptr, ptr %4, align 8
  %16 = getelementptr inbounds i8, ptr %15, i64 24
  %17 = load ptr, ptr %16, align 8
  %18 = icmp eq ptr %17, %1
  br i1 %18, label %19, label %21

19:                                               ; preds = %14
  %20 = load ptr, ptr %1, align 8
  store ptr %20, ptr %16, align 8
  br label %21

21:                                               ; preds = %19, %14
  tail call void @llvm.memset.p0.i64(ptr noundef nonnull align 8 dereferenceable(24) %1, i8 0, i64 24, i1 false)
  br label %"_ZSt10__invoke_rIvRZN9DfgVertex12unlinkDeleteER8DfgGraphE3$_0JR7DfgEdgemEENSt9enable_ifIX16is_invocable_r_vIT_T0_DpT1_EES8_E4typeEOS9_DpOSA_.exit"

"_ZSt10__invoke_rIvRZN9DfgVertex12unlinkDeleteER8DfgGraphE3$_0JR7DfgEdgemEENSt9enable_ifIX16is_invocable_r_vIT_T0_DpT1_EES8_E4typeEOS9_DpOSA_.exit": ; preds = %3, %21
  ret void
}